target datalayout = "e-m:e-p270:32:32-p271:32:32-p272:64:64-i64:64-i128:128-f80:128-n8:16:32:64-S128"
target triple = "x86_64-pc-linux-gnu"

%"struct.(anonymous namespace)::AsmWriterContext" = type { ptr, ptr, ptr, ptr }
%"class.llvm::StringRef" = type { ptr, i64 }
%"class.llvm::raw_ostream" = type { ptr, i32, ptr, ptr, ptr, i8, i32 }
%"class.std::unique_ptr" = type { %"struct.std::__uniq_ptr_data" }
%"struct.std::__uniq_ptr_data" = type { %"class.std::__uniq_ptr_impl" }
%"class.std::__uniq_ptr_impl" = type { %"class.std::tuple" }
%"class.std::tuple" = type { %"struct.std::_Tuple_impl" }
%"struct.std::_Tuple_impl" = type { %"struct.std::_Head_base.1" }
%"struct.std::_Head_base.1" = type { ptr }
%"class.llvm::Value" = type { i8, i8, i16, i32, ptr, ptr }
%"class.llvm::AttributeSet" = type { ptr }
%"class.llvm::SmallVectorBase.86" = type { ptr, i32, i32 }
%"class.(anonymous namespace)::AssemblyWriter" = type { ptr, ptr, ptr, %"class.std::unique_ptr", ptr, %"class.(anonymous namespace)::TypePrinting", ptr, %"class.llvm::SetVector", i8, i8, [6 x i8], %"class.llvm::DenseMap.298", %"class.llvm::SmallVector.301", %"class.llvm::SmallVector.301", %"class.llvm::DenseMap.306" }
%"class.(anonymous namespace)::TypePrinting" = type { ptr, %"class.llvm::TypeFinder", %"class.llvm::DenseMap.285", %"class.std::vector.280" }
%"class.llvm::TypeFinder" = type <{ %"class.llvm::DenseSet", %"class.llvm::DenseSet.265", %"class.llvm::DenseSet.270", %"class.llvm::DenseSet.275", %"class.std::vector.280", i8, [7 x i8] }>
%"class.llvm::DenseSet" = type { %"class.llvm::detail::DenseSetImpl" }
%"class.llvm::detail::DenseSetImpl" = type { %"class.llvm::DenseMap.262" }
%"class.llvm::DenseMap.262" = type <{ ptr, i32, i32, i32, [4 x i8] }>
%"class.llvm::DenseSet.265" = type { %"class.llvm::detail::DenseSetImpl.266" }
%"class.llvm::detail::DenseSetImpl.266" = type { %"class.llvm::DenseMap.267" }
%"class.llvm::DenseMap.267" = type <{ ptr, i32, i32, i32, [4 x i8] }>
%"class.llvm::DenseSet.270" = type { %"class.llvm::detail::DenseSetImpl.271" }
%"class.llvm::detail::DenseSetImpl.271" = type { %"class.llvm::DenseMap.272" }
%"class.llvm::DenseMap.272" = type <{ ptr, i32, i32, i32, [4 x i8] }>
%"class.llvm::DenseSet.275" = type { %"class.llvm::detail::DenseSetImpl.276" }
%"class.llvm::detail::DenseSetImpl.276" = type { %"class.llvm::DenseMap.277" }
%"class.llvm::DenseMap.277" = type <{ ptr, i32, i32, i32, [4 x i8] }>
%"class.llvm::DenseMap.285" = type <{ ptr, i32, i32, i32, [4 x i8] }>
%"class.std::vector.280" = type { %"struct.std::_Vector_base.281" }
%"struct.std::_Vector_base.281" = type { %"struct.std::_Vector_base<llvm::StructType *, std::allocator<llvm::StructType *>>::_Vector_impl" }
%"struct.std::_Vector_base<llvm::StructType *, std::allocator<llvm::StructType *>>::_Vector_impl" = type { %"struct.std::_Vector_base<llvm::StructType *, std::allocator<llvm::StructType *>>::_Vector_impl_data" }
%"struct.std::_Vector_base<llvm::StructType *, std::allocator<llvm::StructType *>>::_Vector_impl_data" = type { ptr, ptr, ptr }
%"class.llvm::SetVector" = type { %"class.llvm::DenseSet.288", %"class.llvm::SmallVector.293" }
%"class.llvm::DenseSet.288" = type { %"class.llvm::detail::DenseSetImpl.289" }
%"class.llvm::detail::DenseSetImpl.289" = type { %"class.llvm::DenseMap.290" }
%"class.llvm::DenseMap.290" = type <{ ptr, i32, i32, i32, [4 x i8] }>
%"class.llvm::SmallVector.293" = type { %"class.llvm::SmallVectorImpl.294" }
%"class.llvm::SmallVectorImpl.294" = type { %"class.llvm::SmallVectorTemplateBase.295" }
%"class.llvm::SmallVectorTemplateBase.295" = type { %"class.llvm::SmallVectorTemplateCommon.296" }
%"class.llvm::SmallVectorTemplateCommon.296" = type { %"class.llvm::SmallVectorBase.86" }
%"class.llvm::DenseMap.298" = type <{ ptr, i32, i32, i32, [4 x i8] }>
%"class.llvm::SmallVector.301" = type { %"class.llvm::SmallVectorImpl.302", %"struct.llvm::SmallVectorStorage.305" }
%"class.llvm::SmallVectorImpl.302" = type { %"class.llvm::SmallVectorTemplateBase.303" }
%"class.llvm::SmallVectorTemplateBase.303" = type { %"class.llvm::SmallVectorTemplateCommon.304" }
%"class.llvm::SmallVectorTemplateCommon.304" = type { %"class.llvm::SmallVectorBase.86" }
%"struct.llvm::SmallVectorStorage.305" = type { [128 x i8] }
%"class.llvm::DenseMap.306" = type <{ ptr, i32, i32, i32, [4 x i8] }>

@.str.126 = private unnamed_addr constant [16 x i8] c"<null operand!>\00", align 1

; Function Attrs: mustprogress nounwind uwtable
define linkonce_odr hidden noundef ptr @_ZNK4llvm9StringRef4dataEv(ptr noundef nonnull align 8 dereferenceable(16) %0) #0 comdat align 2 {
  %2 = alloca ptr, align 8
  store ptr %0, ptr %2, align 8
  %3 = load ptr, ptr %2, align 8
  %4 = getelementptr inbounds nuw %"class.llvm::StringRef", ptr %3, i32 0, i32 0
  %5 = load ptr, ptr %4, align 8
  ret ptr %5
}

; Function Attrs: mustprogress nounwind uwtable
define linkonce_odr hidden noundef i64 @_ZNK4llvm9StringRef4sizeEv(ptr noundef nonnull align 8 dereferenceable(16) %0) #0 comdat align 2 {
  %2 = alloca ptr, align 8
  store ptr %0, ptr %2, align 8
  %3 = load ptr, ptr %2, align 8
  %4 = getelementptr inbounds nuw %"class.llvm::StringRef", ptr %3, i32 0, i32 1
  %5 = load i64, ptr %4, align 8
  ret i64 %5
}

; Function Attrs: mustprogress nounwind uwtable
define linkonce_odr hidden noundef i64 @_ZNSt11char_traitsIcE6lengthEPKc(ptr noundef %0) #0 comdat align 2 {
  %2 = alloca ptr, align 8
  store ptr %0, ptr %2, align 8
  %3 = load ptr, ptr %2, align 8
  %4 = call i64 @strlen(ptr noundef %3) #11
  ret i64 %4
}

; Function Attrs: mustprogress nounwind uwtable
define internal void @_ZN12_GLOBAL__N_116AsmWriterContextC2EPNS_12TypePrintingEPN4llvm11SlotTrackerEPKNS3_6ModuleE(ptr noundef nonnull align 8 dereferenceable(32) %0, ptr noundef %1, ptr noundef %2, ptr noundef %3) unnamed_addr #0 align 2 {
  %5 = alloca ptr, align 8
  %6 = alloca ptr, align 8
  %7 = alloca ptr, align 8
  %8 = alloca ptr, align 8
  store ptr %0, ptr %5, align 8
  store ptr %1, ptr %6, align 8
  store ptr %2, ptr %7, align 8
  store ptr %3, ptr %8, align 8
  %9 = load ptr, ptr %5, align 8
  store ptr getelementptr inbounds inrange(-16, 24) ({ [5 x ptr] }, ptr @_ZTVN12_GLOBAL__N_116AsmWriterContextE, i32 0, i32 0, i32 2), ptr %9, align 8
  %10 = getelementptr inbounds nuw %"struct.(anonymous namespace)::AsmWriterContext", ptr %9, i32 0, i32 1
  %11 = load ptr, ptr %6, align 8
  store ptr %11, ptr %10, align 8
  %12 = getelementptr inbounds nuw %"struct.(anonymous namespace)::AsmWriterContext", ptr %9, i32 0, i32 2
  %13 = load ptr, ptr %7, align 8
  store ptr %13, ptr %12, align 8
  %14 = getelementptr inbounds nuw %"struct.(anonymous namespace)::AsmWriterContext", ptr %9, i32 0, i32 3
  %15 = load ptr, ptr %8, align 8
  store ptr %15, ptr %14, align 8
  ret void
}

; Function Attrs: mustprogress nounwind uwtable
define linkonce_odr hidden noundef nonnull align 8 dereferenceable(48) ptr @_ZN4llvm11raw_ostreamlsENS_9StringRefE(ptr noundef nonnull align 8 dereferenceable(48) %0, ptr %1, i64 %2) #0 comdat align 2 {
  %4 = alloca ptr, align 8
  %5 = alloca %"class.llvm::StringRef", align 8
  %6 = alloca ptr, align 8
  %7 = alloca i64, align 8
  %8 = getelementptr inbounds nuw { ptr, i64 }, ptr %5, i32 0, i32 0
  store ptr %1, ptr %8, align 8
  %9 = getelementptr inbounds nuw { ptr, i64 }, ptr %5, i32 0, i32 1
  store i64 %2, ptr %9, align 8
  store ptr %0, ptr %6, align 8
  %10 = load ptr, ptr %6, align 8
  %11 = call noundef i64 @_ZNK4llvm9StringRef4sizeEv(ptr noundef nonnull align 8 dereferenceable(16) %5)
  store i64 %11, ptr %7, align 8
  %12 = load i64, ptr %7, align 8
  %13 = getelementptr inbounds nuw %"class.llvm::raw_ostream", ptr %10, i32 0, i32 3
  %14 = load ptr, ptr %13, align 8
  %15 = getelementptr inbounds nuw %"class.llvm::raw_ostream", ptr %10, i32 0, i32 4
  %16 = load ptr, ptr %15, align 8
  %17 = ptrtoint ptr %14 to i64
  %18 = ptrtoint ptr %16 to i64
  %19 = sub i64 %17, %18
  %20 = icmp ugt i64 %12, %19
  br i1 %20, label %21, label %25

21:                                               ; preds = %3
  %22 = call noundef ptr @_ZNK4llvm9StringRef4dataEv(ptr noundef nonnull align 8 dereferenceable(16) %5)
  %23 = load i64, ptr %7, align 8
  %24 = call noundef nonnull align 8 dereferenceable(48) ptr @_ZN4llvm11raw_ostream5writeEPKcm(ptr noundef nonnull align 8 dereferenceable(48) %10, ptr noundef %22, i64 noundef %23)
  store ptr %24, ptr %4, align 8
  br label %38

25:                                               ; preds = %3
  %26 = load i64, ptr %7, align 8
  %27 = icmp ne i64 %26, 0
  br i1 %27, label %28, label %37

28:                                               ; preds = %25
  %29 = getelementptr inbounds nuw %"class.llvm::raw_ostream", ptr %10, i32 0, i32 4
  %30 = load ptr, ptr %29, align 8
  %31 = call noundef ptr @_ZNK4llvm9StringRef4dataEv(ptr noundef nonnull align 8 dereferenceable(16) %5)
  %32 = load i64, ptr %7, align 8
  call void @llvm.memcpy.p0.p0.i64(ptr align 1 %30, ptr align 1 %31, i64 %32, i1 false)
  %33 = load i64, ptr %7, align 8
  %34 = getelementptr inbounds nuw %"class.llvm::raw_ostream", ptr %10, i32 0, i32 4
  %35 = load ptr, ptr %34, align 8
  %36 = getelementptr inbounds i8, ptr %35, i64 %33
  store ptr %36, ptr %34, align 8
  br label %37

37:                                               ; preds = %28, %25
  store ptr %10, ptr %4, align 8
  br label %38

38:                                               ; preds = %37, %21
  %39 = load ptr, ptr %4, align 8
  ret ptr %39
}

; Function Attrs: mustprogress nounwind uwtable
define linkonce_odr hidden void @_ZN4llvm9StringRefC2EPKc(ptr noundef nonnull align 8 dereferenceable(16) %0, ptr noundef %1) unnamed_addr #0 comdat align 2 {
  %3 = alloca ptr, align 8
  %4 = alloca ptr, align 8
  store ptr %0, ptr %3, align 8
  store ptr %1, ptr %4, align 8
  %5 = load ptr, ptr %3, align 8
  %6 = getelementptr inbounds nuw %"class.llvm::StringRef", ptr %5, i32 0, i32 0
  %7 = load ptr, ptr %4, align 8
  store ptr %7, ptr %6, align 8
  %8 = getelementptr inbounds nuw %"class.llvm::StringRef", ptr %5, i32 0, i32 1
  %9 = load ptr, ptr %4, align 8
  %10 = icmp ne ptr %9, null
  br i1 %10, label %11, label %14

11:                                               ; preds = %2
  %12 = load ptr, ptr %4, align 8
  %13 = call noundef i64 @_ZNSt11char_traitsIcE6lengthEPKc(ptr noundef %12)
  br label %15

14:                                               ; preds = %2
  br label %15

15:                                               ; preds = %14, %11
  %16 = phi i64 [ %13, %11 ], [ 0, %14 ]
  store i64 %16, ptr %8, align 8
  ret void
}

; Function Attrs: mustprogress nounwind uwtable
define internal void @_ZN12_GLOBAL__N_116AsmWriterContextD2Ev(ptr noundef nonnull align 8 dereferenceable(32) %0) unnamed_addr #0 align 2 {
  %2 = alloca ptr, align 8
  store ptr %0, ptr %2, align 8
  ret void
}

; Function Attrs: mustprogress nounwind uwtable
define internal void @_ZN12_GLOBAL__N_114AssemblyWriter10getContextEv(ptr dead_on_unwind noalias writable sret(%"struct.(anonymous namespace)::AsmWriterContext") align 8 %0, ptr noundef nonnull align 8 dereferenceable(616) %1) #0 align 2 {
  %3 = alloca ptr, align 8
  %4 = alloca ptr, align 8
  store ptr %0, ptr %3, align 8
  store ptr %1, ptr %4, align 8
  %5 = load ptr, ptr %4, align 8
  %6 = getelementptr inbounds nuw %"class.(anonymous namespace)::AssemblyWriter", ptr %5, i32 0, i32 5
  %7 = getelementptr inbounds nuw %"class.(anonymous namespace)::AssemblyWriter", ptr %5, i32 0, i32 4
  %8 = load ptr, ptr %7, align 8
  %9 = getelementptr inbounds nuw %"class.(anonymous namespace)::AssemblyWriter", ptr %5, i32 0, i32 1
  %10 = load ptr, ptr %9, align 8
  call void @_ZN12_GLOBAL__N_116AsmWriterContextC2EPNS_12TypePrintingEPN4llvm11SlotTrackerEPKNS3_6ModuleE(ptr noundef nonnull align 8 dereferenceable(32) %0, ptr noundef %6, ptr noundef %8, ptr noundef %10)
  ret void
}

; Function Attrs: mustprogress nounwind uwtable
define linkonce_odr hidden noundef nonnull align 8 dereferenceable(48) ptr @_ZN4llvm11raw_ostreamlsEc(ptr noundef nonnull align 8 dereferenceable(48) %0, i8 noundef signext %1) #0 comdat align 2 {
  %3 = alloca ptr, align 8
  %4 = alloca ptr, align 8
  %5 = alloca i8, align 1
  store ptr %0, ptr %4, align 8
  store i8 %1, ptr %5, align 1
  %6 = load ptr, ptr %4, align 8
  %7 = getelementptr inbounds nuw %"class.llvm::raw_ostream", ptr %6, i32 0, i32 4
  %8 = load ptr, ptr %7, align 8
  %9 = getelementptr inbounds nuw %"class.llvm::raw_ostream", ptr %6, i32 0, i32 3
  %10 = load ptr, ptr %9, align 8
  %11 = icmp uge ptr %8, %10
  br i1 %11, label %12, label %15

12:                                               ; preds = %2
  %13 = load i8, ptr %5, align 1
  %14 = call noundef nonnull align 8 dereferenceable(48) ptr @_ZN4llvm11raw_ostream5writeEh(ptr noundef nonnull align 8 dereferenceable(48) %6, i8 noundef zeroext %13)
  store ptr %14, ptr %3, align 8
  br label %20

15:                                               ; preds = %2
  %16 = load i8, ptr %5, align 1
  %17 = getelementptr inbounds nuw %"class.llvm::raw_ostream", ptr %6, i32 0, i32 4
  %18 = load ptr, ptr %17, align 8
  %19 = getelementptr inbounds i8, ptr %18, i32 1
  store ptr %19, ptr %17, align 8
  store i8 %16, ptr %18, align 1
  store ptr %6, ptr %3, align 8
  br label %20

20:                                               ; preds = %15, %12
  %21 = load ptr, ptr %3, align 8
  ret ptr %21
}

; Function Attrs: mustprogress nounwind uwtable
define linkonce_odr hidden noundef zeroext i1 @_ZNK4llvm12AttributeSet13hasAttributesEv(ptr noundef nonnull align 8 dereferenceable(8) %0) #0 comdat align 2 {
  %2 = alloca ptr, align 8
  store ptr %0, ptr %2, align 8
  %3 = load ptr, ptr %2, align 8
  %4 = getelementptr inbounds nuw %"class.llvm::AttributeSet", ptr %3, i32 0, i32 0
  %5 = load ptr, ptr %4, align 8
  %6 = icmp ne ptr %5, null
  ret i1 %6
}

; Function Attrs: mustprogress nounwind uwtable
define linkonce_odr hidden noundef ptr @_ZNK4llvm5Value7getTypeEv(ptr noundef nonnull align 8 dereferenceable(24) %0) #0 comdat align 2 {
  %2 = alloca ptr, align 8
  store ptr %0, ptr %2, align 8
  %3 = load ptr, ptr %2, align 8
  %4 = getelementptr inbounds nuw %"class.llvm::Value", ptr %3, i32 0, i32 4
  %5 = load ptr, ptr %4, align 8
  ret ptr %5
}

; Function Attrs: mustprogress nounwind uwtable
define linkonce_odr hidden noundef nonnull align 8 dereferenceable(48) ptr @_ZN4llvm11raw_ostreamlsEPKc(ptr noundef nonnull align 8 dereferenceable(48) %0, ptr noundef %1) #0 comdat align 2 {
  %3 = alloca ptr, align 8
  %4 = alloca ptr, align 8
  %5 = alloca %"class.llvm::StringRef", align 8
  store ptr %0, ptr %3, align 8
  store ptr %1, ptr %4, align 8
  %6 = load ptr, ptr %3, align 8
  %7 = load ptr, ptr %4, align 8
  call void @_ZN4llvm9StringRefC2EPKc(ptr noundef nonnull align 8 dereferenceable(16) %5, ptr noundef %7)
  %8 = getelementptr inbounds nuw { ptr, i64 }, ptr %5, i32 0, i32 0
  %9 = load ptr, ptr %8, align 8
  %10 = getelementptr inbounds nuw { ptr, i64 }, ptr %5, i32 0, i32 1
  %11 = load i64, ptr %10, align 8
  %12 = call noundef nonnull align 8 dereferenceable(48) ptr @_ZN4llvm11raw_ostreamlsENS_9StringRefE(ptr noundef nonnull align 8 dereferenceable(48) %6, ptr %9, i64 %11)
  ret ptr %12
}

; Function Attrs: mustprogress nounwind uwtable
define internal void @_ZN12_GLOBAL__N_114AssemblyWriter17writeParamOperandEPKN4llvm5ValueENS1_12AttributeSetE(ptr noundef nonnull align 8 dereferenceable(616) %0, ptr noundef %1, ptr %2) #0 align 2 {
  %4 = alloca %"class.llvm::AttributeSet", align 8
  %5 = alloca ptr, align 8
  %6 = alloca ptr, align 8
  %7 = alloca %"struct.(anonymous namespace)::AsmWriterContext", align 8
  %8 = getelementptr inbounds nuw %"class.llvm::AttributeSet", ptr %4, i32 0, i32 0
  store ptr %2, ptr %8, align 8
  store ptr %0, ptr %5, align 8
  store ptr %1, ptr %6, align 8
  %9 = load ptr, ptr %5, align 8
  %10 = load ptr, ptr %6, align 8
  %11 = icmp ne ptr %10, null
  br i1 %11, label %16, label %12

12:                                               ; preds = %3
  %13 = getelementptr inbounds nuw %"class.(anonymous namespace)::AssemblyWriter", ptr %9, i32 0, i32 0
  %14 = load ptr, ptr %13, align 8
  %15 = call noundef nonnull align 8 dereferenceable(48) ptr @_ZN4llvm11raw_ostreamlsEPKc(ptr noundef nonnull align 8 dereferenceable(48) %14, ptr noundef @.str.126)
  br label %34

16:                                               ; preds = %3
  %17 = getelementptr inbounds nuw %"class.(anonymous namespace)::AssemblyWriter", ptr %9, i32 0, i32 5
  %18 = load ptr, ptr %6, align 8
  %19 = call noundef ptr @_ZNK4llvm5Value7getTypeEv(ptr noundef nonnull align 8 dereferenceable(24) %18)
  %20 = getelementptr inbounds nuw %"class.(anonymous namespace)::AssemblyWriter", ptr %9, i32 0, i32 0
  %21 = load ptr, ptr %20, align 8
  call void @_ZN12_GLOBAL__N_112TypePrinting5printEPN4llvm4TypeERNS1_11raw_ostreamE(ptr noundef nonnull align 8 dereferenceable(184) %17, ptr noundef %19, ptr noundef nonnull align 8 dereferenceable(48) %21)
  %22 = call noundef zeroext i1 @_ZNK4llvm12AttributeSet13hasAttributesEv(ptr noundef nonnull align 8 dereferenceable(8) %4)
  br i1 %22, label %23, label %27

23:                                               ; preds = %16
  %24 = getelementptr inbounds nuw %"class.(anonymous namespace)::AssemblyWriter", ptr %9, i32 0, i32 0
  %25 = load ptr, ptr %24, align 8
  %26 = call noundef nonnull align 8 dereferenceable(48) ptr @_ZN4llvm11raw_ostreamlsEc(ptr noundef nonnull align 8 dereferenceable(48) %25, i8 noundef signext 32)
  call void @_ZN12_GLOBAL__N_114AssemblyWriter17writeAttributeSetERKN4llvm12AttributeSetEb(ptr noundef nonnull align 8 dereferenceable(616) %9, ptr noundef nonnull align 8 dereferenceable(8) %4, i1 noundef zeroext false)
  br label %27

27:                                               ; preds = %23, %16
  %28 = getelementptr inbounds nuw %"class.(anonymous namespace)::AssemblyWriter", ptr %9, i32 0, i32 0
  %29 = load ptr, ptr %28, align 8
  %30 = call noundef nonnull align 8 dereferenceable(48) ptr @_ZN4llvm11raw_ostreamlsEc(ptr noundef nonnull align 8 dereferenceable(48) %29, i8 noundef signext 32)
  call void @_ZN12_GLOBAL__N_114AssemblyWriter10getContextEv(ptr dead_on_unwind writable sret(%"struct.(anonymous namespace)::AsmWriterContext") align 8 %7, ptr noundef nonnull align 8 dereferenceable(616) %9)
  %31 = getelementptr inbounds nuw %"class.(anonymous namespace)::AssemblyWriter", ptr %9, i32 0, i32 0
  %32 = load ptr, ptr %31, align 8
  %33 = load ptr, ptr %6, align 8
  call void @_ZL22WriteAsOperandInternalRN4llvm11raw_ostreamEPKNS_5ValueERN12_GLOBAL__N_116AsmWriterContextE(ptr noundef nonnull align 8 dereferenceable(48) %32, ptr noundef %33, ptr noundef nonnull align 8 dereferenceable(32) %7)
  call void @_ZN12_GLOBAL__N_116AsmWriterContextD2Ev(ptr noundef nonnull align 8 dereferenceable(32) %7) #11
  br label %34

34:                                               ; preds = %27, %12
  ret void
}