; Function Attrs: mustprogress nounwind uwtable
define internal fastcc void @_ZN12_GLOBAL__N_114AssemblyWriter17writeParamOperandEPKN4llvm5ValueENS1_12AttributeSetE(ptr noundef nonnull align 8 dereferenceable(616) %0, ptr noundef %1, ptr %2) unnamed_addr #1 align 2 {
  %4 = alloca %"class.llvm::AttributeSet", align 8
  %5 = alloca %"struct.(anonymous namespace)::AsmWriterContext", align 8
  store ptr %2, ptr %4, align 8
  %.not = icmp eq ptr %1, null
  br i1 %.not, label %6, label %21

6:                                                ; preds = %3
  %7 = load ptr, ptr %0, align 8
  %8 = getelementptr inbounds nuw i8, ptr %7, i64 24
  %9 = load ptr, ptr %8, align 8
  %10 = getelementptr inbounds nuw i8, ptr %7, i64 32
  %11 = load ptr, ptr %10, align 8
  %12 = ptrtoint ptr %9 to i64
  %13 = ptrtoint ptr %11 to i64
  %14 = sub i64 %12, %13
  %15 = icmp ult i64 %14, 15
  br i1 %15, label %16, label %18

16:                                               ; preds = %6
  %17 = tail call noundef nonnull align 8 dereferenceable(48) ptr @_ZN4llvm11raw_ostream5writeEPKcm(ptr noundef nonnull align 8 dereferenceable(48) %7, ptr noundef nonnull @.str.126, i64 noundef 15) #25
  br label %_ZN4llvm11raw_ostreamlsEPKc.exit

18:                                               ; preds = %6
  tail call void @llvm.memcpy.p0.p0.i64(ptr noundef nonnull align 1 dereferenceable(15) %11, ptr noundef nonnull align 1 dereferenceable(15) @.str.126, i64 15, i1 false)
  %19 = load ptr, ptr %10, align 8
  %20 = getelementptr inbounds i8, ptr %19, i64 15
  store ptr %20, ptr %10, align 8
  br label %_ZN4llvm11raw_ostreamlsEPKc.exit

21:                                               ; preds = %3
  %22 = getelementptr inbounds nuw i8, ptr %0, i64 40
  %23 = getelementptr inbounds nuw i8, ptr %1, i64 8
  %24 = load ptr, ptr %23, align 8
  %25 = load ptr, ptr %0, align 8
  tail call fastcc void @_ZN12_GLOBAL__N_112TypePrinting5printEPN4llvm4TypeERNS1_11raw_ostreamE(ptr noundef nonnull align 8 dereferenceable(184) %22, ptr noundef %24, ptr noundef nonnull align 8 dereferenceable(48) %25)
  %.not7 = icmp eq ptr %2, null
  br i1 %.not7, label %36, label %26

26:                                               ; preds = %21
  %27 = load ptr, ptr %0, align 8
  %28 = getelementptr inbounds nuw i8, ptr %27, i64 32
  %29 = load ptr, ptr %28, align 8
  %30 = getelementptr inbounds nuw i8, ptr %27, i64 24
  %31 = load ptr, ptr %30, align 8
  %.not.i = icmp ult ptr %29, %31
  br i1 %.not.i, label %34, label %32

32:                                               ; preds = %26
  %33 = tail call noundef nonnull align 8 dereferenceable(48) ptr @_ZN4llvm11raw_ostream5writeEh(ptr noundef nonnull align 8 dereferenceable(48) %27, i8 noundef zeroext 32) #25
  br label %_ZN4llvm11raw_ostreamlsEc.exit

34:                                               ; preds = %26
  %35 = getelementptr inbounds i8, ptr %29, i64 1
  store ptr %35, ptr %28, align 8
  store i8 32, ptr %29, align 1
  br label %_ZN4llvm11raw_ostreamlsEc.exit

_ZN4llvm11raw_ostreamlsEc.exit:                   ; preds = %32, %34
  call fastcc void @_ZN12_GLOBAL__N_114AssemblyWriter17writeAttributeSetERKN4llvm12AttributeSetEb(ptr noundef nonnull align 8 dereferenceable(616) %0, ptr noundef nonnull align 8 dereferenceable(8) %4)
  br label %36

36:                                               ; preds = %_ZN4llvm11raw_ostreamlsEc.exit, %21
  %37 = load ptr, ptr %0, align 8
  %38 = getelementptr inbounds nuw i8, ptr %37, i64 32
  %39 = load ptr, ptr %38, align 8
  %40 = getelementptr inbounds nuw i8, ptr %37, i64 24
  %41 = load ptr, ptr %40, align 8
  %.not.i4 = icmp ult ptr %39, %41
  br i1 %.not.i4, label %44, label %42

42:                                               ; preds = %36
  %43 = call noundef nonnull align 8 dereferenceable(48) ptr @_ZN4llvm11raw_ostream5writeEh(ptr noundef nonnull align 8 dereferenceable(48) %37, i8 noundef zeroext 32) #25
  br label %_ZN4llvm11raw_ostreamlsEc.exit6

44:                                               ; preds = %36
  %45 = getelementptr inbounds i8, ptr %39, i64 1
  store ptr %45, ptr %38, align 8
  store i8 32, ptr %39, align 1
  br label %_ZN4llvm11raw_ostreamlsEc.exit6

_ZN4llvm11raw_ostreamlsEc.exit6:                  ; preds = %42, %44
  call void @llvm.experimental.noalias.scope.decl(metadata !268)
  %46 = getelementptr inbounds nuw i8, ptr %0, i64 32
  %47 = load ptr, ptr %46, align 8, !noalias !268
  %48 = getelementptr inbounds nuw i8, ptr %0, i64 8
  %49 = load ptr, ptr %48, align 8, !noalias !268
  store ptr getelementptr inbounds inrange(-16, 24) (i8, ptr @_ZTVN12_GLOBAL__N_116AsmWriterContextE, i64 16), ptr %5, align 8, !alias.scope !268
  %50 = getelementptr inbounds nuw i8, ptr %5, i64 8
  store ptr %22, ptr %50, align 8, !alias.scope !268
  %51 = getelementptr inbounds nuw i8, ptr %5, i64 16
  store ptr %47, ptr %51, align 8, !alias.scope !268
  %52 = getelementptr inbounds nuw i8, ptr %5, i64 24
  store ptr %49, ptr %52, align 8, !alias.scope !268
  %53 = load ptr, ptr %0, align 8
  call fastcc void @_ZL22WriteAsOperandInternalRN4llvm11raw_ostreamEPKNS_5ValueERN12_GLOBAL__N_116AsmWriterContextE(ptr noundef nonnull align 8 dereferenceable(48) %53, ptr noundef nonnull %1, ptr noundef nonnull align 8 dereferenceable(32) %5)
  br label %_ZN4llvm11raw_ostreamlsEPKc.exit

_ZN4llvm11raw_ostreamlsEPKc.exit:                 ; preds = %18, %16, %_ZN4llvm11raw_ostreamlsEc.exit6
  ret void
}